target datalayout = "e-m:e-p270:32:32-p271:32:32-p272:64:64-i64:64-i128:128-f80:128-n8:16:32:64-S128"
target triple = "x86_64-unknown-linux-gnu"

; Function Attrs: nounwind uwtable
define dso_local ptr @sdsnewlen(ptr noundef %init, i64 noundef %initlen) #0 {
entry:
  %init.addr = alloca ptr, align 8
  %initlen.addr = alloca i64, align 8
  store ptr %init, ptr %init.addr, align 8
  store i64 %initlen, ptr %initlen.addr, align 8
  %0 = load ptr, ptr %init.addr, align 8
  %1 = load i64, ptr %initlen.addr, align 8
  %call = call ptr @_sdsnewlen(ptr noundef %0, i64 noundef %1, i32 noundef 0)
  ret ptr %call
}

; Function Attrs: nounwind uwtable
define dso_local ptr @sdsnew(ptr noundef %init) #0 {
entry:
  %init.addr = alloca ptr, align 8
  %initlen = alloca i64, align 8
  store ptr %init, ptr %init.addr, align 8
  %0 = load ptr, ptr %init.addr, align 8
  %cmp = icmp eq ptr %0, null
  br i1 %cmp, label %cond.true, label %cond.false

cond.true:                                        ; preds = %entry
  br label %cond.end

cond.false:                                       ; preds = %entry
  %1 = load ptr, ptr %init.addr, align 8
  %call = call i64 @strlen(ptr noundef %1) #12
  br label %cond.end

cond.end:                                         ; preds = %cond.false, %cond.true
  %cond = phi i64 [ 0, %cond.true ], [ %call, %cond.false ]
  store i64 %cond, ptr %initlen, align 8
  %2 = load ptr, ptr %init.addr, align 8
  %3 = load i64, ptr %initlen, align 8
  %call1 = call ptr @sdsnewlen(ptr noundef %2, i64 noundef %3)
  ret ptr %call1
}