; Function Attrs: nounwind uwtable
define dso_local ptr @sdsnew(ptr noundef %init) local_unnamed_addr #0 {
entry:
  %usable.i = alloca i64, align 8
  %cmp = icmp eq ptr %init, null
  br i1 %cmp, label %sdsHdrSize.exit.i, label %cond.false.split

sdsHdrSize.exit.i:                                ; preds = %entry
  call void @llvm.lifetime.start.p0(i64 8, ptr nonnull %usable.i)
  %call21.i = call ptr @zmalloc_usable(i64 noundef 4, ptr noundef nonnull %usable.i) #25
  %cmp23.i = icmp eq ptr %call21.i, null
  br i1 %cmp23.i, label %_sdsnewlen.exit, label %if.end26.i

if.end26.i:                                       ; preds = %sdsHdrSize.exit.i
  %0 = load ptr, ptr @SDS_NOINIT, align 8
  %cmp27.i = icmp eq ptr %0, null
  br i1 %cmp27.i, label %sdsTypeMaxSize.exit.i, label %if.else.i

if.else.i:                                        ; preds = %if.end26.i
  store i32 0, ptr %call21.i, align 1
  br label %sdsTypeMaxSize.exit.i

sdsTypeMaxSize.exit.i:                            ; preds = %if.else.i, %if.end26.i
  %add.ptr.i = getelementptr inbounds i8, ptr %call21.i, i64 3
  %add.ptr37.i = getelementptr inbounds i8, ptr %call21.i, i64 2
  %1 = load i64, ptr %usable.i, align 8
  %sub39.i = add i64 %1, -4
  %spec.store.select = call i64 @llvm.umin.i64(i64 %sub39.i, i64 255)
  store i64 %spec.store.select, ptr %usable.i, align 8
  store i8 0, ptr %call21.i, align 1
  %2 = load i64, ptr %usable.i, align 8
  %conv53.i = trunc i64 %2 to i8
  %alloc.i = getelementptr inbounds i8, ptr %call21.i, i64 1
  store i8 %conv53.i, ptr %alloc.i, align 1
  store i8 1, ptr %add.ptr37.i, align 1
  store i8 0, ptr %add.ptr.i, align 1
  br label %_sdsnewlen.exit

_sdsnewlen.exit:                                  ; preds = %sdsHdrSize.exit.i, %sdsTypeMaxSize.exit.i
  %retval.0.i = phi ptr [ %add.ptr.i, %sdsTypeMaxSize.exit.i ], [ null, %sdsHdrSize.exit.i ]
  call void @llvm.lifetime.end.p0(i64 8, ptr nonnull %usable.i)
  br label %cond.end

cond.false.split:                                 ; preds = %entry
  %call = tail call i64 @strlen(ptr noundef nonnull dereferenceable(1) %init) #27
  %call.i5 = tail call ptr @_sdsnewlen(ptr noundef nonnull %init, i64 noundef %call, i32 noundef 0)
  br label %cond.end

cond.end:                                         ; preds = %_sdsnewlen.exit, %cond.false.split
  %phi.call = phi ptr [ %call.i5, %cond.false.split ], [ %retval.0.i, %_sdsnewlen.exit ]
  ret ptr %phi.call
}